; ModuleID = '12/91.c'
source_filename = "12/91.c"
target datalayout = "e-m:e-p270:32:32-p271:32:32-p272:64:64-i64:64-f80:128-n8:16:32:64-S128"
target triple = "x86_64-pc-linux-gnu"

@.str = private unnamed_addr constant [3 x i8] c"%d\00", align 1
@.str.1 = private unnamed_addr constant [4 x i8] c"%d\0A\00", align 1

; Function Attrs: noinline nounwind uwtable
define dso_local i32 @main() #0 {
  %1 = alloca i32, align 4
  %2 = alloca [16 x i32], align 16
  %3 = alloca i32, align 4
  %4 = alloca i32, align 4
  %5 = alloca i32, align 4
  %6 = alloca i32, align 4
  store i32 0, i32* %1, align 4
  br label %7

7:                                                ; preds = %0, %65
  store i32 0, i32* %6, align 4
  store i32 0, i32* %3, align 4
  br label %8

8:                                                ; preds = %28, %7
  %9 = load i32, i32* %3, align 4
  %10 = sext i32 %9 to i64
  %11 = getelementptr inbounds [16 x i32], [16 x i32]* %2, i64 0, i64 %10
  %12 = call i32 (i8*, ...) @__isoc99_scanf(i8* getelementptr inbounds ([3 x i8], [3 x i8]* @.str, i64 0, i64 0), i32* %11)
  %13 = load i32, i32* %3, align 4
  %14 = sext i32 %13 to i64
  %15 = getelementptr inbounds [16 x i32], [16 x i32]* %2, i64 0, i64 %14
  %16 = load i32, i32* %15, align 4
  %17 = icmp eq i32 %16, -1
  br i1 %17, label %18, label %19

18:                                               ; preds = %8
  ret i32 0

19:                                               ; preds = %8
  %20 = load i32, i32* %3, align 4
  %21 = sext i32 %20 to i64
  %22 = getelementptr inbounds [16 x i32], [16 x i32]* %2, i64 0, i64 %21
  %23 = load i32, i32* %22, align 4
  %24 = icmp eq i32 %23, 0
  br i1 %24, label %25, label %26

25:                                               ; preds = %19
  br label %31

26:                                               ; preds = %19
  br label %27

27:                                               ; preds = %26
  br label %28

28:                                               ; preds = %27
  %29 = load i32, i32* %3, align 4
  %30 = add nsw i32 %29, 1
  store i32 %30, i32* %3, align 4
  br label %8

31:                                               ; preds = %25
  store i32 0, i32* %4, align 4
  br label %32

32:                                               ; preds = %62, %31
  %33 = load i32, i32* %4, align 4
  %34 = load i32, i32* %3, align 4
  %35 = sub nsw i32 %34, 1
  %36 = icmp sle i32 %33, %35
  br i1 %36, label %37, label %65

37:                                               ; preds = %32
  store i32 0, i32* %5, align 4
  br label %38

38:                                               ; preds = %58, %37
  %39 = load i32, i32* %5, align 4
  %40 = load i32, i32* %3, align 4
  %41 = sub nsw i32 %40, 1
  %42 = icmp sle i32 %39, %41
  br i1 %42, label %43, label %61

43:                                               ; preds = %38
  %44 = load i32, i32* %4, align 4
  %45 = sext i32 %44 to i64
  %46 = getelementptr inbounds [16 x i32], [16 x i32]* %2, i64 0, i64 %45
  %47 = load i32, i32* %46, align 4
  %48 = load i32, i32* %5, align 4
  %49 = sext i32 %48 to i64
  %50 = getelementptr inbounds [16 x i32], [16 x i32]* %2, i64 0, i64 %49
  %51 = load i32, i32* %50, align 4
  %52 = mul nsw i32 %51, 2
  %53 = icmp eq i32 %47, %52
  br i1 %53, label %54, label %57

54:                                               ; preds = %43
  %55 = load i32, i32* %6, align 4
  %56 = add nsw i32 %55, 1
  store i32 %56, i32* %6, align 4
  br label %61

57:                                               ; preds = %43
  br label %58

58:                                               ; preds = %57
  %59 = load i32, i32* %5, align 4
  %60 = add nsw i32 %59, 1
  store i32 %60, i32* %5, align 4
  br label %38

61:                                               ; preds = %54, %38
  br label %62

62:                                               ; preds = %61
  %63 = load i32, i32* %4, align 4
  %64 = add nsw i32 %63, 1
  store i32 %64, i32* %4, align 4
  br label %32

65:                                               ; preds = %32
  %66 = load i32, i32* %6, align 4
  %67 = call i32 (i8*, ...) @printf(i8* getelementptr inbounds ([4 x i8], [4 x i8]* @.str.1, i64 0, i64 0), i32 %66)
  br label %7
}

declare dso_local i32 @__isoc99_scanf(i8*, ...) #1

declare dso_local i32 @printf(i8*, ...) #1


!llvm.module.flags = !{!0}
!llvm.ident = !{!1}

!0 = !{i32 1, !"wchar_size", i32 4}
!1 = !{!"clang version 10.0.0-4ubuntu1 "}
